; Function Attrs: nofree nounwind uwtable
define ptr @stbds_hmget_key(ptr noundef captures(address_is_null, ret: address, provenance) %0, i64 noundef %1, ptr noundef readonly captures(none) %2, i64 noundef %3, i32 noundef %4) local_unnamed_addr #8 {
  %6 = icmp eq ptr %0, null
  br i1 %6, label %7, label %14

7:                                                ; preds = %5
  %8 = shl i64 %1, 2
  %9 = add i64 %8, 32
  %malloc.i = tail call ptr @malloc(i64 %9)
  %10 = getelementptr inbounds nuw i8, ptr %malloc.i, i64 32
  %11 = getelementptr inbounds nuw i8, ptr %malloc.i, i64 16
  tail call void @llvm.memset.p0.i64(ptr noundef nonnull align 8 dereferenceable(16) %11, i8 0, i64 16, i1 false)
  %12 = getelementptr inbounds nuw i8, ptr %malloc.i, i64 8
  store i64 4, ptr %12, align 8, !tbaa !9
  store i64 1, ptr %malloc.i, align 8, !tbaa !3
  tail call void @llvm.memset.p0.i64(ptr nonnull align 1 %10, i8 0, i64 %1, i1 false)
  %13 = getelementptr inbounds nuw i8, ptr %10, i64 %1
  %.pre = sub i64 0, %1
  br label %stbds_hmget_key_ts.exit

14:                                               ; preds = %5
  %15 = sub i64 0, %1
  %16 = getelementptr inbounds i8, ptr %0, i64 %15
  %17 = getelementptr inbounds i8, ptr %16, i64 -16
  %18 = load ptr, ptr %17, align 8, !tbaa !37
  %19 = icmp eq ptr %18, null
  br i1 %19, label %stbds_hmget_key_ts.exit, label %20

20:                                               ; preds = %14
  %21 = tail call i64 @stbds_hm_find_slot(ptr noundef nonnull readonly %0, i64 noundef %1, ptr noundef readonly %2, i64 noundef %3, i64 noundef 0, i32 noundef %4)
  %22 = icmp slt i64 %21, 0
  br i1 %22, label %stbds_hmget_key_ts.exit, label %23

23:                                               ; preds = %20
  %24 = getelementptr inbounds nuw i8, ptr %18, i64 96
  %25 = load ptr, ptr %24, align 8, !tbaa !13
  %26 = lshr i64 %21, 3
  %27 = and i64 %21, 7
  %28 = getelementptr inbounds nuw %struct.stbds_hash_bucket, ptr %25, i64 %26, i32 1, i64 %27
  %29 = load i64, ptr %28, align 8, !tbaa !10
  br label %stbds_hmget_key_ts.exit

stbds_hmget_key_ts.exit:                          ; preds = %14, %20, %23, %7
  %.pre-phi = phi i64 [ %15, %14 ], [ %15, %20 ], [ %15, %23 ], [ %.pre, %7 ]
  %.0 = phi i64 [ -1, %14 ], [ -1, %20 ], [ %29, %23 ], [ -1, %7 ]
  %.0.i = phi ptr [ %0, %14 ], [ %0, %20 ], [ %0, %23 ], [ %13, %7 ]
  %30 = getelementptr inbounds i8, ptr %.0.i, i64 %.pre-phi
  %31 = getelementptr inbounds i8, ptr %30, i64 -8
  store i64 %.0, ptr %31, align 8, !tbaa !46
  ret ptr %.0.i
}